target datalayout = "e-m:e-p270:32:32-p271:32:32-p272:64:64-i64:64-i128:128-f80:128-n8:16:32:64-S128"
target triple = "x86_64-pc-linux-gnu"

; Function Attrs: mustprogress uwtable
define signext i8 @ubidi_getMemory_77(ptr noundef %0, ptr noundef %1, i8 noundef signext %2, i32 noundef %3) #0 {
  %5 = alloca i8, align 1
  %6 = alloca ptr, align 8
  %7 = alloca ptr, align 8
  %8 = alloca i8, align 1
  %9 = alloca i32, align 4
  %10 = alloca ptr, align 8
  %11 = alloca i32, align 4
  %12 = alloca ptr, align 8
  store ptr %0, ptr %6, align 8, !tbaa !9
  store ptr %1, ptr %7, align 8, !tbaa !28
  store i8 %2, ptr %8, align 1, !tbaa !30
  store i32 %3, ptr %9, align 4, !tbaa !7
  call void @llvm.lifetime.start.p0(i64 8, ptr %10) #10
  %13 = load ptr, ptr %6, align 8, !tbaa !9
  store ptr %13, ptr %10, align 8, !tbaa !31
  %14 = load ptr, ptr %10, align 8, !tbaa !31
  %15 = load ptr, ptr %14, align 8, !tbaa !9
  %16 = icmp eq ptr %15, null
  br i1 %16, label %17, label %30

17:                                               ; preds = %4
  %18 = load i8, ptr %8, align 1, !tbaa !30
  %19 = icmp ne i8 %18, 0
  br i1 %19, label %20, label %29

20:                                               ; preds = %17
  %21 = load i32, ptr %9, align 4, !tbaa !7
  %22 = sext i32 %21 to i64
  %23 = call noalias ptr @uprv_malloc_77(i64 noundef %22) #11
  %24 = load ptr, ptr %10, align 8, !tbaa !31
  store ptr %23, ptr %24, align 8, !tbaa !9
  %25 = icmp ne ptr %23, null
  br i1 %25, label %26, label %29

26:                                               ; preds = %20
  %27 = load i32, ptr %9, align 4, !tbaa !7
  %28 = load ptr, ptr %7, align 8, !tbaa !28
  store i32 %27, ptr %28, align 4, !tbaa !7
  store i8 1, ptr %5, align 1
  store i32 1, ptr %11, align 4
  br label %54

29:                                               ; preds = %20, %17
  store i8 0, ptr %5, align 1
  store i32 1, ptr %11, align 4
  br label %54

30:                                               ; preds = %4
  %31 = load i32, ptr %9, align 4, !tbaa !7
  %32 = load ptr, ptr %7, align 8, !tbaa !28
  %33 = load i32, ptr %32, align 4, !tbaa !7
  %34 = icmp sle i32 %31, %33
  br i1 %34, label %35, label %36

35:                                               ; preds = %30
  store i8 1, ptr %5, align 1
  store i32 1, ptr %11, align 4
  br label %54

36:                                               ; preds = %30
  %37 = load i8, ptr %8, align 1, !tbaa !30
  %38 = icmp ne i8 %37, 0
  br i1 %38, label %40, label %39

39:                                               ; preds = %36
  store i8 0, ptr %5, align 1
  store i32 1, ptr %11, align 4
  br label %54

40:                                               ; preds = %36
  call void @llvm.lifetime.start.p0(i64 8, ptr %12) #10
  %41 = load ptr, ptr %10, align 8, !tbaa !31
  %42 = load ptr, ptr %41, align 8, !tbaa !9
  %43 = load i32, ptr %9, align 4, !tbaa !7
  %44 = sext i32 %43 to i64
  %45 = call ptr @uprv_realloc_77(ptr noundef %42, i64 noundef %44) #12
  store ptr %45, ptr %12, align 8, !tbaa !9
  %46 = icmp ne ptr %45, null
  br i1 %46, label %47, label %52

47:                                               ; preds = %40
  %48 = load ptr, ptr %12, align 8, !tbaa !9
  %49 = load ptr, ptr %10, align 8, !tbaa !31
  store ptr %48, ptr %49, align 8, !tbaa !9
  %50 = load i32, ptr %9, align 4, !tbaa !7
  %51 = load ptr, ptr %7, align 8, !tbaa !28
  store i32 %50, ptr %51, align 4, !tbaa !7
  store i8 1, ptr %5, align 1
  store i32 1, ptr %11, align 4
  br label %53

52:                                               ; preds = %40
  store i8 0, ptr %5, align 1
  store i32 1, ptr %11, align 4
  br label %53

53:                                               ; preds = %52, %47
  call void @llvm.lifetime.end.p0(i64 8, ptr %12) #10
  br label %54

54:                                               ; preds = %53, %39, %35, %29, %26
  call void @llvm.lifetime.end.p0(i64 8, ptr %10) #10
  %55 = load i8, ptr %5, align 1
  ret i8 %55
}