; Function Attrs: mustprogress uwtable
define signext range(i8 0, 2) i8 @ubidi_getMemory_77(ptr noundef captures(none) %0, ptr noundef captures(none) %1, i8 noundef signext %2, i32 noundef %3) local_unnamed_addr #0 {
  %5 = load ptr, ptr %0, align 8, !tbaa !24
  %6 = icmp eq ptr %5, null
  br i1 %6, label %7, label %11

7:                                                ; preds = %4
  %.not21 = icmp eq i8 %2, 0
  br i1 %.not21, label %18, label %8

8:                                                ; preds = %7
  %9 = sext i32 %3 to i64
  %10 = tail call noalias ptr @uprv_malloc_77(i64 noundef %9) #16
  store ptr %10, ptr %0, align 8, !tbaa !24
  %.not22 = icmp eq ptr %10, null
  br i1 %.not22, label %18, label %.sink.split

11:                                               ; preds = %4
  %12 = load i32, ptr %1, align 4, !tbaa !25
  %.not = icmp sgt i32 %3, %12
  br i1 %.not, label %13, label %18

13:                                               ; preds = %11
  %.not19 = icmp eq i8 %2, 0
  br i1 %.not19, label %18, label %14

14:                                               ; preds = %13
  %15 = sext i32 %3 to i64
  %16 = tail call ptr @uprv_realloc_77(ptr noundef nonnull %5, i64 noundef %15) #17
  %.not20 = icmp eq ptr %16, null
  br i1 %.not20, label %18, label %17

17:                                               ; preds = %14
  store ptr %16, ptr %0, align 8, !tbaa !24
  br label %.sink.split

.sink.split:                                      ; preds = %8, %17
  store i32 %3, ptr %1, align 4, !tbaa !25
  br label %18

18:                                               ; preds = %.sink.split, %14, %13, %11, %7, %8
  %.0 = phi i8 [ 0, %8 ], [ 0, %7 ], [ 1, %11 ], [ 0, %13 ], [ 0, %14 ], [ 1, %.sink.split ]
  ret i8 %.0
}